; Function Attrs: mustprogress uwtable
define noundef i32 @_ZN6LibRaw9open_fileEPKc(ptr noundef nonnull align 8 dereferenceable(767680) %0, ptr noundef %1) local_unnamed_addr #0 align 2 personality ptr @__gxx_personality_v0 {
  %3 = invoke noalias noundef nonnull dereferenceable(56) ptr @_Znwm(i64 noundef 56) #18
          to label %4 unwind label %11

4:                                                ; preds = %2
  invoke void @_ZN25LibRaw_bigfile_datastreamC1EPKc(ptr noundef nonnull align 8 dereferenceable(56) %3, ptr noundef %1)
          to label %5 unwind label %13

5:                                                ; preds = %4
  %6 = load ptr, ptr %3, align 8, !tbaa !6
  %7 = getelementptr inbounds nuw i8, ptr %6, i64 48
  %8 = load ptr, ptr %7, align 8
  %9 = tail call noundef i64 %8(ptr noundef nonnull align 8 dereferenceable(8) %3)
  %10 = icmp sgt i64 %9, 2147483647
  br i1 %10, label %23, label %33

11:                                               ; preds = %2
  %12 = landingpad { ptr, i32 }
          cleanup
          catch ptr @_ZTISt9bad_alloc
  br label %15

13:                                               ; preds = %4
  %14 = landingpad { ptr, i32 }
          cleanup
          catch ptr @_ZTISt9bad_alloc
  tail call void @_ZdlPvm(ptr noundef nonnull %3, i64 noundef 56) #19
  br label %15

15:                                               ; preds = %13, %11
  %.pn = phi { ptr, i32 } [ %14, %13 ], [ %12, %11 ]
  %.010 = extractvalue { ptr, i32 } %.pn, 1
  %16 = tail call i32 @llvm.eh.typeid.for.p0(ptr nonnull @_ZTISt9bad_alloc) #17
  %17 = icmp eq i32 %.010, %16
  br i1 %17, label %18, label %53

18:                                               ; preds = %15
  %.011 = extractvalue { ptr, i32 } %.pn, 0
  %19 = tail call ptr @__cxa_begin_catch(ptr %.011) #17
  invoke void @_ZN6LibRaw7recycleEv(ptr noundef nonnull align 8 dereferenceable(767680) %0)
          to label %20 unwind label %21

20:                                               ; preds = %18
  tail call void @__cxa_end_catch()
  br label %_ZN6LibRaw20libraw_openfile_tailEP26LibRaw_abstract_datastream.exit

21:                                               ; preds = %18
  %22 = landingpad { ptr, i32 }
          cleanup
  invoke void @__cxa_end_catch()
          to label %53 unwind label %54

23:                                               ; preds = %5
  %24 = load ptr, ptr %3, align 8, !tbaa !6
  %25 = getelementptr inbounds nuw i8, ptr %24, i64 48
  %26 = load ptr, ptr %25, align 8
  %27 = tail call noundef i64 %26(ptr noundef nonnull align 8 dereferenceable(8) %3)
  %28 = icmp sgt i64 %27, 2147483647
  br i1 %28, label %29, label %33

29:                                               ; preds = %23
  %30 = load ptr, ptr %3, align 8, !tbaa !6
  %31 = getelementptr inbounds nuw i8, ptr %30, i64 8
  %32 = load ptr, ptr %31, align 8
  tail call void %32(ptr noundef nonnull align 8 dereferenceable(8) %3) #17
  br label %_ZN6LibRaw20libraw_openfile_tailEP26LibRaw_abstract_datastream.exit

33:                                               ; preds = %23, %5
  %34 = load ptr, ptr %3, align 8, !tbaa !6
  %35 = getelementptr inbounds nuw i8, ptr %34, i64 16
  %36 = load ptr, ptr %35, align 8
  %37 = tail call noundef i32 %36(ptr noundef nonnull align 8 dereferenceable(8) %3)
  %.not.i = icmp eq i32 %37, 0
  br i1 %.not.i, label %38, label %42

38:                                               ; preds = %33
  %39 = load ptr, ptr %3, align 8, !tbaa !6
  %40 = getelementptr inbounds nuw i8, ptr %39, i64 8
  %41 = load ptr, ptr %40, align 8
  tail call void %41(ptr noundef nonnull align 8 dereferenceable(8) %3) #17
  br label %_ZN6LibRaw20libraw_openfile_tailEP26LibRaw_abstract_datastream.exit

42:                                               ; preds = %33
  %43 = getelementptr inbounds nuw i8, ptr %0, i64 381432
  store i32 0, ptr %43, align 8, !tbaa !9
  %44 = load ptr, ptr %0, align 8, !tbaa !6
  %45 = load ptr, ptr %44, align 8
  %46 = tail call noundef i32 %45(ptr noundef nonnull align 8 dereferenceable(767680) %0, ptr noundef nonnull %3)
  %47 = icmp eq i32 %46, 0
  br i1 %47, label %52, label %48

48:                                               ; preds = %42
  %49 = load ptr, ptr %3, align 8, !tbaa !6
  %50 = getelementptr inbounds nuw i8, ptr %49, i64 8
  %51 = load ptr, ptr %50, align 8
  tail call void %51(ptr noundef nonnull align 8 dereferenceable(8) %3) #17
  br label %52

52:                                               ; preds = %48, %42
  %storemerge.i = phi i32 [ 0, %48 ], [ 1, %42 ]
  store i32 %storemerge.i, ptr %43, align 8, !tbaa !9
  br label %_ZN6LibRaw20libraw_openfile_tailEP26LibRaw_abstract_datastream.exit

_ZN6LibRaw20libraw_openfile_tailEP26LibRaw_abstract_datastream.exit: ; preds = %52, %38, %29, %20
  %.0 = phi i32 [ -100012, %29 ], [ -100007, %20 ], [ %46, %52 ], [ -100009, %38 ]
  ret i32 %.0

53:                                               ; preds = %21, %15
  %.merged = phi { ptr, i32 } [ %.pn, %15 ], [ %22, %21 ]
  resume { ptr, i32 } %.merged

54:                                               ; preds = %21
  %55 = landingpad { ptr, i32 }
          catch ptr null
  %56 = extractvalue { ptr, i32 } %55, 0
  tail call void @__clang_call_terminate(ptr %56) #20
  unreachable
}